target datalayout = "e-m:e-p270:32:32-p271:32:32-p272:64:64-i64:64-i128:128-f80:128-n8:16:32:64-S128"
target triple = "x86_64-pc-linux-gnu"

@.str.1 = private unnamed_addr constant [12 x i8] c"namespace.c\00", align 1
@myTempNamespace = internal global i32 0, align 4
@.str.7 = private unnamed_addr constant [8 x i8] c"pg_temp\00", align 1
@activeTempCreationPending = internal global i8 0, align 1
@activeCreationNamespace = internal global i32 0, align 4
@.str.8 = private unnamed_addr constant [41 x i8] c"no schema has been selected to create in\00", align 1
@__func__.QualifiedNameGetCreationNamespace = private unnamed_addr constant [34 x i8] c"QualifiedNameGetCreationNamespace\00", align 1
@.str.22 = private unnamed_addr constant [27 x i8] c"schema \22%s\22 does not exist\00", align 1
@__func__.get_namespace_oid = private unnamed_addr constant [18 x i8] c"get_namespace_oid\00", align 1

; Function Attrs: inlinehint nounwind uwtable
define internal i64 @PointerGetDatum(ptr noundef %0) #7 {
  %2 = alloca ptr, align 8
  store ptr %0, ptr %2, align 8
  %3 = load ptr, ptr %2, align 8
  %4 = ptrtoint ptr %3 to i64
  ret i64 %4
}

; Function Attrs: inlinehint nounwind uwtable
define internal i64 @CStringGetDatum(ptr noundef %0) #7 {
  %2 = alloca ptr, align 8
  store ptr %0, ptr %2, align 8
  %3 = load ptr, ptr %2, align 8
  %4 = call i64 @PointerGetDatum(ptr noundef %3)
  ret i64 %4
}

; Function Attrs: nounwind uwtable
define dso_local i32 @get_namespace_oid(ptr noundef %0, i1 noundef zeroext %1) #0 {
  %3 = alloca ptr, align 8
  %4 = alloca i8, align 1
  %5 = alloca i32, align 4
  store ptr %0, ptr %3, align 8
  %6 = zext i1 %1 to i8
  store i8 %6, ptr %4, align 1
  call void @llvm.lifetime.start.p0(i64 4, ptr %5) #14
  %7 = load ptr, ptr %3, align 8
  %8 = call i64 @CStringGetDatum(ptr noundef %7)
  %9 = call i32 @GetSysCacheOid(i32 noundef 37, i16 noundef signext 1, i64 noundef %8, i64 noundef 0, i64 noundef 0, i64 noundef 0)
  store i32 %9, ptr %5, align 4
  %10 = load i32, ptr %5, align 4
  %11 = icmp ne i32 %10, 0
  br i1 %11, label %28, label %12

12:                                               ; preds = %2
  %13 = load i8, ptr %4, align 1, !range !4, !noundef !5
  %14 = trunc i8 %13 to i1
  br i1 %14, label %28, label %15

15:                                               ; preds = %12
  br label %16

16:                                               ; preds = %15
  br i1 true, label %17, label %19

17:                                               ; preds = %16
  %18 = call zeroext i1 @errstart_cold(i32 noundef 21, ptr noundef null) #16
  br i1 %18, label %21, label %25

19:                                               ; preds = %16
  %20 = call zeroext i1 @errstart(i32 noundef 21, ptr noundef null)
  br i1 %20, label %21, label %25

21:                                               ; preds = %19, %17
  %22 = call i32 @errcode(i32 noundef 1411)
  %23 = load ptr, ptr %3, align 8
  %24 = call i32 (ptr, ...) @errmsg(ptr noundef @.str.22, ptr noundef %23)
  call void @errfinish(ptr noundef @.str.1, i32 noundef 3544, ptr noundef @__func__.get_namespace_oid)
  br label %25

25:                                               ; preds = %21, %19, %17
  unreachable

26:                                               ; No predecessors!
  br label %27

27:                                               ; preds = %26
  br label %28

28:                                               ; preds = %27, %12, %2
  %29 = load i32, ptr %5, align 4
  call void @llvm.lifetime.end.p0(i64 4, ptr %5) #14
  ret i32 %29
}

; Function Attrs: nounwind uwtable
define dso_local i32 @QualifiedNameGetCreationNamespace(ptr noundef %0, ptr noundef %1) #0 {
  %3 = alloca i32, align 4
  %4 = alloca ptr, align 8
  %5 = alloca ptr, align 8
  %6 = alloca ptr, align 8
  %7 = alloca i32, align 4
  %8 = alloca i32, align 4
  store ptr %0, ptr %4, align 8
  store ptr %1, ptr %5, align 8
  call void @llvm.lifetime.start.p0(i64 8, ptr %6) #14
  call void @llvm.lifetime.start.p0(i64 4, ptr %7) #14
  %9 = load ptr, ptr %4, align 8
  %10 = load ptr, ptr %5, align 8
  call void @DeconstructQualifiedName(ptr noundef %9, ptr noundef %6, ptr noundef %10)
  %11 = load ptr, ptr %6, align 8
  %12 = icmp ne ptr %11, null
  br i1 %12, label %13, label %22

13:                                               ; preds = %2
  %14 = load ptr, ptr %6, align 8
  %15 = call i32 @strcmp(ptr noundef %14, ptr noundef @.str.7) #15
  %16 = icmp eq i32 %15, 0
  br i1 %16, label %17, label %19

17:                                               ; preds = %13
  call void @AccessTempTableNamespace(i1 noundef zeroext false)
  %18 = load i32, ptr @myTempNamespace, align 4
  store i32 %18, ptr %3, align 4
  store i32 1, ptr %8, align 4
  br label %46

19:                                               ; preds = %13
  %20 = load ptr, ptr %6, align 8
  %21 = call i32 @get_namespace_oid(ptr noundef %20, i1 noundef zeroext false)
  store i32 %21, ptr %7, align 4
  br label %44

22:                                               ; preds = %2
  call void @recomputeNamespacePath()
  %23 = load i8, ptr @activeTempCreationPending, align 1, !range !4, !noundef !5
  %24 = trunc i8 %23 to i1
  br i1 %24, label %25, label %27

25:                                               ; preds = %22
  call void @AccessTempTableNamespace(i1 noundef zeroext true)
  %26 = load i32, ptr @myTempNamespace, align 4
  store i32 %26, ptr %3, align 4
  store i32 1, ptr %8, align 4
  br label %46

27:                                               ; preds = %22
  %28 = load i32, ptr @activeCreationNamespace, align 4
  store i32 %28, ptr %7, align 4
  %29 = load i32, ptr %7, align 4
  %30 = icmp ne i32 %29, 0
  br i1 %30, label %43, label %31

31:                                               ; preds = %27
  br label %32

32:                                               ; preds = %31
  br i1 true, label %33, label %35

33:                                               ; preds = %32
  %34 = call zeroext i1 @errstart_cold(i32 noundef 21, ptr noundef null) #16
  br i1 %34, label %37, label %40

35:                                               ; preds = %32
  %36 = call zeroext i1 @errstart(i32 noundef 21, ptr noundef null)
  br i1 %36, label %37, label %40

37:                                               ; preds = %35, %33
  %38 = call i32 @errcode(i32 noundef 1411)
  %39 = call i32 (ptr, ...) @errmsg(ptr noundef @.str.8)
  call void @errfinish(ptr noundef @.str.1, i32 noundef 3522, ptr noundef @__func__.QualifiedNameGetCreationNamespace)
  br label %40

40:                                               ; preds = %37, %35, %33
  unreachable

41:                                               ; No predecessors!
  br label %42

42:                                               ; preds = %41
  br label %43

43:                                               ; preds = %42, %27
  br label %44

44:                                               ; preds = %43, %19
  %45 = load i32, ptr %7, align 4
  store i32 %45, ptr %3, align 4
  store i32 1, ptr %8, align 4
  br label %46

46:                                               ; preds = %44, %25, %17
  call void @llvm.lifetime.end.p0(i64 4, ptr %7) #14
  call void @llvm.lifetime.end.p0(i64 8, ptr %6) #14
  %47 = load i32, ptr %3, align 4
  ret i32 %47
}