; Function Attrs: nounwind uwtable
define dso_local i32 @QualifiedNameGetCreationNamespace(ptr noundef captures(address_is_null) %0, ptr noundef writeonly captures(none) %1) local_unnamed_addr #0 {
  %3 = alloca ptr, align 8
  call void @llvm.lifetime.start.p0(i64 8, ptr nonnull %3) #19
  call void @DeconstructQualifiedName(ptr noundef %0, ptr noundef nonnull %3, ptr noundef %1)
  %4 = load ptr, ptr %3, align 8
  %.not = icmp eq ptr %4, null
  br i1 %.not, label %15, label %5

5:                                                ; preds = %2
  %6 = tail call i32 @strcmp(ptr noundef nonnull dereferenceable(1) %4, ptr noundef nonnull dereferenceable(8) @.str.7) #20
  %7 = icmp eq i32 %6, 0
  br i1 %7, label %get_namespace_oid.exit.sink.split, label %8

8:                                                ; preds = %5
  %9 = ptrtoint ptr %4 to i64
  %10 = tail call i32 @GetSysCacheOid(i32 noundef 37, i16 noundef signext 1, i64 noundef %9, i64 noundef 0, i64 noundef 0, i64 noundef 0) #19
  %.not.i.not = icmp eq i32 %10, 0
  br i1 %.not.i.not, label %11, label %get_namespace_oid.exit

11:                                               ; preds = %8
  %12 = tail call zeroext i1 @errstart_cold(i32 noundef 21, ptr noundef null) #21
  tail call void @llvm.assume(i1 %12)
  %13 = tail call i32 @errcode(i32 noundef 1411) #19
  %14 = tail call i32 (ptr, ...) @errmsg(ptr noundef nonnull @.str.22, ptr noundef nonnull %4) #19
  tail call void @errfinish(ptr noundef nonnull @.str.1, i32 noundef 3544, ptr noundef nonnull @__func__.get_namespace_oid) #19
  unreachable

15:                                               ; preds = %2
  tail call fastcc void @recomputeNamespacePath()
  %16 = load i8, ptr @activeTempCreationPending, align 1, !range !4, !noundef !5
  %17 = trunc nuw i8 %16 to i1
  br i1 %17, label %get_namespace_oid.exit.sink.split, label %18

18:                                               ; preds = %15
  %19 = load i32, ptr @activeCreationNamespace, align 4
  %.not7 = icmp eq i32 %19, 0
  br i1 %.not7, label %20, label %get_namespace_oid.exit

20:                                               ; preds = %18
  %21 = tail call zeroext i1 @errstart_cold(i32 noundef 21, ptr noundef null) #21
  tail call void @llvm.assume(i1 %21)
  %22 = tail call i32 @errcode(i32 noundef 1411) #19
  %23 = tail call i32 (ptr, ...) @errmsg(ptr noundef nonnull @.str.8) #19
  tail call void @errfinish(ptr noundef nonnull @.str.1, i32 noundef 3522, ptr noundef nonnull @__func__.QualifiedNameGetCreationNamespace) #19
  unreachable

get_namespace_oid.exit.sink.split:                ; preds = %15, %5
  tail call fastcc void @AccessTempTableNamespace(i1 noundef zeroext %.not)
  %24 = load i32, ptr @myTempNamespace, align 4
  br label %get_namespace_oid.exit

get_namespace_oid.exit:                           ; preds = %get_namespace_oid.exit.sink.split, %8, %18
  %.04 = phi i32 [ %19, %18 ], [ %10, %8 ], [ %24, %get_namespace_oid.exit.sink.split ]
  call void @llvm.lifetime.end.p0(i64 8, ptr nonnull %3) #19
  ret i32 %.04
}